target datalayout = "e-m:e-p270:32:32-p271:32:32-p272:64:64-i64:64-i128:128-f80:128-n8:16:32:64-S128"
target triple = "x86_64-pc-linux-gnu"

%"class.ZBitMap::ReverseIterator" = type { ptr, i64, i64 }
%class.ZRememberedSetContainingIterator = type { ptr, %"class.ZBitMap::ReverseIterator", i64, %"class.ZBitMap::ReverseIterator" }
%class.ZRememberedSetContainingInLiveIterator = type { %class.ZRememberedSetContainingIterator, i64, i64, i64, i64, ptr }

@.str = private unnamed_addr constant [43 x i8] c" (remembered iter count: %lu skipped: %lu)\00", align 1

; Function Attrs: mustprogress nounwind uwtable
define hidden void @_ZNK38ZRememberedSetContainingInLiveIterator16print_statisticsEv(ptr noundef nonnull align 8 dereferenceable(104) %0) #1 align 2 {
  %2 = alloca ptr, align 8
  store ptr %0, ptr %2, align 8
  %3 = load ptr, ptr %2, align 8
  %4 = getelementptr inbounds %class.ZRememberedSetContainingInLiveIterator, ptr %3, i32 0, i32 5
  %5 = load ptr, ptr %4, align 8
  %6 = getelementptr inbounds %class.ZRememberedSetContainingInLiveIterator, ptr %3, i32 0, i32 3
  %7 = load i64, ptr %6, align 8
  %8 = getelementptr inbounds %class.ZRememberedSetContainingInLiveIterator, ptr %3, i32 0, i32 4
  %9 = load i64, ptr %8, align 8
  call void (ptr, ptr, ...) @_ZNK5ZPage7log_msgEPKcz(ptr noundef nonnull align 8 dereferenceable(192) %5, ptr noundef @.str, i64 noundef %7, i64 noundef %9)
  ret void
}