; Function Attrs: mustprogress nounwind uwtable
define hidden void @_ZNK38ZRememberedSetContainingInLiveIterator16print_statisticsEv(ptr nocapture noundef nonnull readonly align 8 dereferenceable(104) %0) local_unnamed_addr #3 align 2 {
  %2 = getelementptr inbounds i8, ptr %0, i64 96
  %3 = load ptr, ptr %2, align 8
  %4 = getelementptr inbounds i8, ptr %0, i64 80
  %5 = load i64, ptr %4, align 8
  %6 = getelementptr inbounds i8, ptr %0, i64 88
  %7 = load i64, ptr %6, align 8
  tail call void (ptr, ptr, ...) @_ZNK5ZPage7log_msgEPKcz(ptr noundef nonnull align 8 dereferenceable(192) %3, ptr noundef nonnull @.str, i64 noundef %5, i64 noundef %7)
  ret void
}